target datalayout = "e-m:e-p270:32:32-p271:32:32-p272:64:64-i64:64-i128:128-f80:128-n8:16:32:64-S128"
target triple = "x86_64-pc-linux-gnu"

@lj_char_bits = external hidden constant [257 x i8], align 16
@match_class_map = internal constant [32 x i8] c"\00`\00\01\08\00\00l\00\00\00\00@\00\00\00\04\00\00\02\00 \00h\10\00\00\00\00\00\00\00", align 16

; Function Attrs: nounwind uwtable
define internal i32 @matchbracketclass(i32 noundef %0, ptr noundef %1, ptr noundef %2) #0 {
  %4 = alloca i32, align 4
  %5 = alloca i32, align 4
  %6 = alloca ptr, align 8
  %7 = alloca ptr, align 8
  %8 = alloca i32, align 4
  %9 = alloca i32, align 4
  store i32 %0, ptr %5, align 4, !tbaa !30
  store ptr %1, ptr %6, align 8, !tbaa !31
  store ptr %2, ptr %7, align 8, !tbaa !31
  call void @llvm.lifetime.start.p0(i64 4, ptr %8) #7
  store i32 1, ptr %8, align 4, !tbaa !30
  %10 = load ptr, ptr %6, align 8, !tbaa !31
  %11 = getelementptr inbounds i8, ptr %10, i64 1
  %12 = load i8, ptr %11, align 1, !tbaa !22
  %13 = sext i8 %12 to i32
  %14 = icmp eq i32 %13, 94
  br i1 %14, label %15, label %18

15:                                               ; preds = %3
  store i32 0, ptr %8, align 4, !tbaa !30
  %16 = load ptr, ptr %6, align 8, !tbaa !31
  %17 = getelementptr inbounds nuw i8, ptr %16, i32 1
  store ptr %17, ptr %6, align 8, !tbaa !31
  br label %18

18:                                               ; preds = %15, %3
  br label %19

19:                                               ; preds = %80, %18
  %20 = load ptr, ptr %6, align 8, !tbaa !31
  %21 = getelementptr inbounds nuw i8, ptr %20, i32 1
  store ptr %21, ptr %6, align 8, !tbaa !31
  %22 = load ptr, ptr %7, align 8, !tbaa !31
  %23 = icmp ult ptr %21, %22
  br i1 %23, label %24, label %81

24:                                               ; preds = %19
  %25 = load ptr, ptr %6, align 8, !tbaa !31
  %26 = load i8, ptr %25, align 1, !tbaa !22
  %27 = sext i8 %26 to i32
  %28 = icmp eq i32 %27, 37
  br i1 %28, label %29, label %41

29:                                               ; preds = %24
  %30 = load ptr, ptr %6, align 8, !tbaa !31
  %31 = getelementptr inbounds nuw i8, ptr %30, i32 1
  store ptr %31, ptr %6, align 8, !tbaa !31
  %32 = load i32, ptr %5, align 4, !tbaa !30
  %33 = load ptr, ptr %6, align 8, !tbaa !31
  %34 = load i8, ptr %33, align 1, !tbaa !22
  %35 = zext i8 %34 to i32
  %36 = call i32 @match_class(i32 noundef %32, i32 noundef %35)
  %37 = icmp ne i32 %36, 0
  br i1 %37, label %38, label %40

38:                                               ; preds = %29
  %39 = load i32, ptr %8, align 4, !tbaa !30
  store i32 %39, ptr %4, align 4
  store i32 1, ptr %9, align 4
  br label %86

40:                                               ; preds = %29
  br label %80

41:                                               ; preds = %24
  %42 = load ptr, ptr %6, align 8, !tbaa !31
  %43 = getelementptr inbounds i8, ptr %42, i64 1
  %44 = load i8, ptr %43, align 1, !tbaa !22
  %45 = sext i8 %44 to i32
  %46 = icmp eq i32 %45, 45
  br i1 %46, label %47, label %70

47:                                               ; preds = %41
  %48 = load ptr, ptr %6, align 8, !tbaa !31
  %49 = getelementptr inbounds i8, ptr %48, i64 2
  %50 = load ptr, ptr %7, align 8, !tbaa !31
  %51 = icmp ult ptr %49, %50
  br i1 %51, label %52, label %70

52:                                               ; preds = %47
  %53 = load ptr, ptr %6, align 8, !tbaa !31
  %54 = getelementptr inbounds i8, ptr %53, i64 2
  store ptr %54, ptr %6, align 8, !tbaa !31
  %55 = load ptr, ptr %6, align 8, !tbaa !31
  %56 = getelementptr inbounds i8, ptr %55, i64 -2
  %57 = load i8, ptr %56, align 1, !tbaa !22
  %58 = zext i8 %57 to i32
  %59 = load i32, ptr %5, align 4, !tbaa !30
  %60 = icmp sle i32 %58, %59
  br i1 %60, label %61, label %69

61:                                               ; preds = %52
  %62 = load i32, ptr %5, align 4, !tbaa !30
  %63 = load ptr, ptr %6, align 8, !tbaa !31
  %64 = load i8, ptr %63, align 1, !tbaa !22
  %65 = zext i8 %64 to i32
  %66 = icmp sle i32 %62, %65
  br i1 %66, label %67, label %69

67:                                               ; preds = %61
  %68 = load i32, ptr %8, align 4, !tbaa !30
  store i32 %68, ptr %4, align 4
  store i32 1, ptr %9, align 4
  br label %86

69:                                               ; preds = %61, %52
  br label %79

70:                                               ; preds = %47, %41
  %71 = load ptr, ptr %6, align 8, !tbaa !31
  %72 = load i8, ptr %71, align 1, !tbaa !22
  %73 = zext i8 %72 to i32
  %74 = load i32, ptr %5, align 4, !tbaa !30
  %75 = icmp eq i32 %73, %74
  br i1 %75, label %76, label %78

76:                                               ; preds = %70
  %77 = load i32, ptr %8, align 4, !tbaa !30
  store i32 %77, ptr %4, align 4
  store i32 1, ptr %9, align 4
  br label %86

78:                                               ; preds = %70
  br label %79

79:                                               ; preds = %78, %69
  br label %80

80:                                               ; preds = %79, %40
  br label %19, !llvm.loop !79

81:                                               ; preds = %19
  %82 = load i32, ptr %8, align 4, !tbaa !30
  %83 = icmp ne i32 %82, 0
  %84 = xor i1 %83, true
  %85 = zext i1 %84 to i32
  store i32 %85, ptr %4, align 4
  store i32 1, ptr %9, align 4
  br label %86

86:                                               ; preds = %81, %76, %67, %38
  call void @llvm.lifetime.end.p0(i64 4, ptr %8) #7
  %87 = load i32, ptr %4, align 4
  ret i32 %87
}

; Function Attrs: nounwind uwtable
define internal i32 @match_class(i32 noundef %0, i32 noundef %1) #0 {
  %3 = alloca i32, align 4
  %4 = alloca i32, align 4
  %5 = alloca i32, align 4
  %6 = alloca i32, align 4
  %7 = alloca i32, align 4
  store i32 %0, ptr %4, align 4, !tbaa !30
  store i32 %1, ptr %5, align 4, !tbaa !30
  %8 = load i32, ptr %5, align 4, !tbaa !30
  %9 = and i32 %8, 192
  %10 = icmp eq i32 %9, 64
  br i1 %10, label %11, label %58

11:                                               ; preds = %2
  call void @llvm.lifetime.start.p0(i64 4, ptr %6) #7
  %12 = load i32, ptr %5, align 4, !tbaa !30
  %13 = and i32 %12, 31
  %14 = sext i32 %13 to i64
  %15 = getelementptr inbounds [32 x i8], ptr @match_class_map, i64 0, i64 %14
  %16 = load i8, ptr %15, align 1, !tbaa !22
  %17 = zext i8 %16 to i32
  store i32 %17, ptr %6, align 4, !tbaa !30
  %18 = load i32, ptr %6, align 4, !tbaa !30
  %19 = icmp ne i32 %18, 0
  br i1 %19, label %20, label %40

20:                                               ; preds = %11
  %21 = load i32, ptr %4, align 4, !tbaa !30
  %22 = sext i32 %21 to i64
  %23 = getelementptr inbounds i8, ptr getelementptr inbounds (i8, ptr @lj_char_bits, i64 1), i64 %22
  %24 = load i8, ptr %23, align 1, !tbaa !22
  %25 = zext i8 %24 to i32
  %26 = load i32, ptr %6, align 4, !tbaa !30
  %27 = and i32 %25, %26
  store i32 %27, ptr %6, align 4, !tbaa !30
  %28 = load i32, ptr %5, align 4, !tbaa !30
  %29 = and i32 %28, 32
  %30 = icmp ne i32 %29, 0
  br i1 %30, label %31, label %33

31:                                               ; preds = %20
  %32 = load i32, ptr %6, align 4, !tbaa !30
  br label %38

33:                                               ; preds = %20
  %34 = load i32, ptr %6, align 4, !tbaa !30
  %35 = icmp ne i32 %34, 0
  %36 = xor i1 %35, true
  %37 = zext i1 %36 to i32
  br label %38

38:                                               ; preds = %33, %31
  %39 = phi i32 [ %32, %31 ], [ %37, %33 ]
  store i32 %39, ptr %3, align 4
  store i32 1, ptr %7, align 4
  br label %55

40:                                               ; preds = %11
  %41 = load i32, ptr %5, align 4, !tbaa !30
  %42 = icmp eq i32 %41, 122
  br i1 %42, label %43, label %47

43:                                               ; preds = %40
  %44 = load i32, ptr %4, align 4, !tbaa !30
  %45 = icmp eq i32 %44, 0
  %46 = zext i1 %45 to i32
  store i32 %46, ptr %3, align 4
  store i32 1, ptr %7, align 4
  br label %55

47:                                               ; preds = %40
  %48 = load i32, ptr %5, align 4, !tbaa !30
  %49 = icmp eq i32 %48, 90
  br i1 %49, label %50, label %54

50:                                               ; preds = %47
  %51 = load i32, ptr %4, align 4, !tbaa !30
  %52 = icmp ne i32 %51, 0
  %53 = zext i1 %52 to i32
  store i32 %53, ptr %3, align 4
  store i32 1, ptr %7, align 4
  br label %55

54:                                               ; preds = %47
  store i32 0, ptr %7, align 4
  br label %55

55:                                               ; preds = %54, %50, %43, %38
  call void @llvm.lifetime.end.p0(i64 4, ptr %6) #7
  %56 = load i32, ptr %7, align 4
  switch i32 %56, label %65 [
    i32 0, label %57
    i32 1, label %63
  ]

57:                                               ; preds = %55
  br label %58

58:                                               ; preds = %57, %2
  %59 = load i32, ptr %5, align 4, !tbaa !30
  %60 = load i32, ptr %4, align 4, !tbaa !30
  %61 = icmp eq i32 %59, %60
  %62 = zext i1 %61 to i32
  store i32 %62, ptr %3, align 4
  br label %63

63:                                               ; preds = %58, %55
  %64 = load i32, ptr %3, align 4
  ret i32 %64

65:                                               ; preds = %55
  unreachable
}

; Function Attrs: nounwind uwtable
define internal i32 @singlematch(i32 noundef %0, ptr noundef %1, ptr noundef %2) #0 {
  %4 = alloca i32, align 4
  %5 = alloca i32, align 4
  %6 = alloca ptr, align 8
  %7 = alloca ptr, align 8
  store i32 %0, ptr %5, align 4, !tbaa !30
  store ptr %1, ptr %6, align 8, !tbaa !31
  store ptr %2, ptr %7, align 8, !tbaa !31
  %8 = load ptr, ptr %6, align 8, !tbaa !31
  %9 = load i8, ptr %8, align 1, !tbaa !22
  %10 = sext i8 %9 to i32
  switch i32 %10, label %25 [
    i32 46, label %11
    i32 37, label %12
    i32 91, label %19
  ]

11:                                               ; preds = %3
  store i32 1, ptr %4, align 4
  br label %32

12:                                               ; preds = %3
  %13 = load i32, ptr %5, align 4, !tbaa !30
  %14 = load ptr, ptr %6, align 8, !tbaa !31
  %15 = getelementptr inbounds i8, ptr %14, i64 1
  %16 = load i8, ptr %15, align 1, !tbaa !22
  %17 = zext i8 %16 to i32
  %18 = call i32 @match_class(i32 noundef %13, i32 noundef %17)
  store i32 %18, ptr %4, align 4
  br label %32

19:                                               ; preds = %3
  %20 = load i32, ptr %5, align 4, !tbaa !30
  %21 = load ptr, ptr %6, align 8, !tbaa !31
  %22 = load ptr, ptr %7, align 8, !tbaa !31
  %23 = getelementptr inbounds i8, ptr %22, i64 -1
  %24 = call i32 @matchbracketclass(i32 noundef %20, ptr noundef %21, ptr noundef %23)
  store i32 %24, ptr %4, align 4
  br label %32

25:                                               ; preds = %3
  %26 = load ptr, ptr %6, align 8, !tbaa !31
  %27 = load i8, ptr %26, align 1, !tbaa !22
  %28 = zext i8 %27 to i32
  %29 = load i32, ptr %5, align 4, !tbaa !30
  %30 = icmp eq i32 %28, %29
  %31 = zext i1 %30 to i32
  store i32 %31, ptr %4, align 4
  br label %32

32:                                               ; preds = %25, %19, %12, %11
  %33 = load i32, ptr %4, align 4
  ret i32 %33
}