; Function Attrs: nofree norecurse nosync nounwind memory(argmem: read) uwtable
define internal fastcc range(i32 0, 256) i32 @singlematch(i32 noundef range(i32 0, 256) %0, ptr noundef readonly captures(address) %1, ptr noundef readnone captures(address) %2) unnamed_addr #4 {
  %4 = load i8, ptr %1, align 1, !tbaa !16
  switch i8 %4, label %126 [
    i8 46, label %match_class.exit
    i8 37, label %5
    i8 91, label %37
  ]

5:                                                ; preds = %3
  %6 = getelementptr inbounds nuw i8, ptr %1, i64 1
  %7 = load i8, ptr %6, align 1, !tbaa !16
  %8 = zext i8 %7 to i32
  %9 = and i32 %8, 192
  %10 = icmp eq i32 %9, 64
  br i1 %10, label %11, label %34

11:                                               ; preds = %5
  %12 = and i32 %8, 31
  %13 = zext nneg i32 %12 to i64
  %14 = shl nuw nsw i64 1, %13
  %15 = and i64 %14, 4267110245
  %.not.not.i = icmp eq i64 %15, 0
  br i1 %.not.not.i, label %16, label %27

16:                                               ; preds = %11
  %17 = getelementptr inbounds nuw [32 x i8], ptr @match_class_map, i64 0, i64 %13
  %18 = load i8, ptr %17, align 1, !tbaa !16
  %19 = zext nneg i32 %0 to i64
  %20 = getelementptr inbounds nuw i8, ptr getelementptr inbounds nuw (i8, ptr @lj_char_bits, i64 1), i64 %19
  %21 = load i8, ptr %20, align 1, !tbaa !16
  %22 = and i8 %21, %18
  %23 = and i32 %8, 32
  %.not.i = icmp eq i32 %23, 0
  %24 = zext i8 %22 to i32
  %.not19.i = icmp eq i8 %22, 0
  %25 = zext i1 %.not19.i to i32
  %26 = select i1 %.not.i, i32 %25, i32 %24
  br label %match_class.exit

27:                                               ; preds = %11
  switch i8 %7, label %34 [
    i8 122, label %28
    i8 90, label %31
  ]

28:                                               ; preds = %27
  %29 = icmp eq i32 %0, 0
  %30 = zext i1 %29 to i32
  br label %match_class.exit

31:                                               ; preds = %27
  %32 = icmp ne i32 %0, 0
  %33 = zext i1 %32 to i32
  br label %match_class.exit

34:                                               ; preds = %27, %5
  %35 = icmp eq i32 %0, %8
  %36 = zext i1 %35 to i32
  br label %match_class.exit

37:                                               ; preds = %3
  %38 = getelementptr inbounds i8, ptr %2, i64 -1
  %39 = getelementptr inbounds nuw i8, ptr %1, i64 1
  %40 = load i8, ptr %39, align 1, !tbaa !16
  %41 = icmp eq i8 %40, 94
  %spec.select.i = select i1 %41, ptr %39, ptr %1
  %not..i = xor i1 %41, true
  %42 = getelementptr inbounds nuw i8, ptr %spec.select.i, i64 1
  %43 = icmp ult ptr %42, %38
  br i1 %43, label %.lr.ph.i, label %matchbracketclass.exit

.lr.ph.i:                                         ; preds = %37
  %.not31.i = icmp eq i32 %0, 0
  %44 = zext nneg i32 %0 to i64
  %45 = getelementptr inbounds nuw i8, ptr getelementptr inbounds nuw (i8, ptr @lj_char_bits, i64 1), i64 %44
  %46 = trunc nuw i32 %0 to i8
  br i1 %.not31.i, label %.lr.ph.i.split.us, label %.lr.ph.i.split

.lr.ph.i.split.us:                                ; preds = %.lr.ph.i, %83
  %47 = phi ptr [ %84, %83 ], [ %42, %.lr.ph.i ]
  %.132.i.us = phi ptr [ %.2.i.us, %83 ], [ %spec.select.i, %.lr.ph.i ]
  %48 = load i8, ptr %47, align 1, !tbaa !16
  %49 = icmp eq i8 %48, 37
  %50 = getelementptr inbounds nuw i8, ptr %.132.i.us, i64 2
  %51 = load i8, ptr %50, align 1, !tbaa !16
  br i1 %49, label %62, label %52

52:                                               ; preds = %.lr.ph.i.split.us
  %53 = icmp eq i8 %51, 45
  br i1 %53, label %54, label %57

54:                                               ; preds = %52
  %55 = getelementptr inbounds nuw i8, ptr %.132.i.us, i64 3
  %56 = icmp ult ptr %55, %38
  br i1 %56, label %59, label %57

57:                                               ; preds = %54, %52
  %58 = icmp eq i8 %48, 0
  br i1 %58, label %matchbracketclass.exit, label %83

59:                                               ; preds = %54
  %.not.i8.us.not = icmp eq i8 %48, 0
  br i1 %.not.i8.us.not, label %60, label %83

60:                                               ; preds = %59
  %61 = load i8, ptr %55, align 1, !tbaa !16
  %.not28.i.us = icmp ult i8 %61, %46
  br i1 %.not28.i.us, label %83, label %matchbracketclass.exit

62:                                               ; preds = %.lr.ph.i.split.us
  %63 = zext i8 %51 to i32
  %64 = and i32 %63, 192
  %65 = icmp eq i32 %64, 64
  br i1 %65, label %66, label %72

66:                                               ; preds = %62
  %67 = and i32 %63, 31
  %68 = zext nneg i32 %67 to i64
  %69 = shl nuw nsw i64 1, %68
  %70 = and i64 %69, 4267110245
  %.not.not.i.i.us = icmp eq i64 %70, 0
  br i1 %.not.not.i.i.us, label %73, label %71

71:                                               ; preds = %66
  switch i8 %51, label %83 [
    i8 122, label %matchbracketclass.exit
    i8 0, label %matchbracketclass.exit
  ]

72:                                               ; preds = %62
  %.not39.i.us = icmp eq i8 %51, 0
  br i1 %.not39.i.us, label %matchbracketclass.exit, label %83

73:                                               ; preds = %66
  %74 = getelementptr inbounds nuw [32 x i8], ptr @match_class_map, i64 0, i64 %68
  %75 = load i8, ptr %74, align 1, !tbaa !16
  %76 = load i8, ptr %45, align 1, !tbaa !16
  %77 = and i8 %76, %75
  %78 = and i32 %63, 32
  %.not.i.i.us = icmp eq i32 %78, 0
  %79 = zext i8 %77 to i32
  %.not19.i.i.us = icmp eq i8 %77, 0
  %80 = zext i1 %.not19.i.i.us to i32
  %81 = select i1 %.not.i.i.us, i32 %80, i32 %79
  %82 = icmp eq i32 %81, 0
  br i1 %82, label %83, label %matchbracketclass.exit

83:                                               ; preds = %71, %73, %72, %60, %59, %57
  %.2.i.us = phi ptr [ %55, %60 ], [ %55, %59 ], [ %47, %57 ], [ %50, %72 ], [ %50, %73 ], [ %50, %71 ]
  %84 = getelementptr inbounds nuw i8, ptr %.2.i.us, i64 1
  %85 = icmp ult ptr %84, %38
  br i1 %85, label %.lr.ph.i.split.us, label %matchbracketclass.exit, !llvm.loop !62

.lr.ph.i.split:                                   ; preds = %.lr.ph.i, %match_class.exit.i
  %86 = phi ptr [ %124, %match_class.exit.i ], [ %42, %.lr.ph.i ]
  %.132.i = phi ptr [ %.2.i, %match_class.exit.i ], [ %spec.select.i, %.lr.ph.i ]
  %87 = load i8, ptr %86, align 1, !tbaa !16
  %88 = icmp eq i8 %87, 37
  %89 = getelementptr inbounds nuw i8, ptr %.132.i, i64 2
  %90 = load i8, ptr %89, align 1, !tbaa !16
  br i1 %88, label %91, label %112

91:                                               ; preds = %.lr.ph.i.split
  %92 = zext i8 %90 to i32
  %93 = and i32 %92, 192
  %94 = icmp eq i32 %93, 64
  br i1 %94, label %95, label %111

95:                                               ; preds = %91
  %96 = and i32 %92, 31
  %97 = zext nneg i32 %96 to i64
  %98 = shl nuw nsw i64 1, %97
  %99 = and i64 %98, 4267110245
  %.not.not.i.i = icmp eq i64 %99, 0
  br i1 %.not.not.i.i, label %100, label %110

100:                                              ; preds = %95
  %101 = getelementptr inbounds nuw [32 x i8], ptr @match_class_map, i64 0, i64 %97
  %102 = load i8, ptr %101, align 1, !tbaa !16
  %103 = load i8, ptr %45, align 1, !tbaa !16
  %104 = and i8 %103, %102
  %105 = and i32 %92, 32
  %.not.i.i = icmp eq i32 %105, 0
  %106 = zext i8 %104 to i32
  %.not19.i.i = icmp eq i8 %104, 0
  %107 = zext i1 %.not19.i.i to i32
  %108 = select i1 %.not.i.i, i32 %107, i32 %106
  %109 = icmp eq i32 %108, 0
  br i1 %109, label %match_class.exit.i, label %matchbracketclass.exit

110:                                              ; preds = %95
  switch i8 %90, label %111 [
    i8 122, label %match_class.exit.i
    i8 90, label %matchbracketclass.exit
  ]

111:                                              ; preds = %110, %91
  %.not39.i = icmp eq i32 %0, %92
  br i1 %.not39.i, label %matchbracketclass.exit, label %match_class.exit.i

112:                                              ; preds = %.lr.ph.i.split
  %113 = icmp eq i8 %90, 45
  br i1 %113, label %114, label %121

114:                                              ; preds = %112
  %115 = getelementptr inbounds nuw i8, ptr %.132.i, i64 3
  %116 = icmp ult ptr %115, %38
  br i1 %116, label %117, label %121

117:                                              ; preds = %114
  %118 = zext i8 %87 to i32
  %.not.i8 = icmp samesign ult i32 %0, %118
  br i1 %.not.i8, label %match_class.exit.i, label %119

119:                                              ; preds = %117
  %120 = load i8, ptr %115, align 1, !tbaa !16
  %.not28.i = icmp ult i8 %120, %46
  br i1 %.not28.i, label %match_class.exit.i, label %matchbracketclass.exit

121:                                              ; preds = %114, %112
  %122 = zext i8 %87 to i32
  %123 = icmp eq i32 %0, %122
  br i1 %123, label %matchbracketclass.exit, label %match_class.exit.i

match_class.exit.i:                               ; preds = %110, %121, %119, %117, %111, %100
  %.2.i = phi ptr [ %115, %119 ], [ %115, %117 ], [ %86, %121 ], [ %89, %111 ], [ %89, %100 ], [ %89, %110 ]
  %124 = getelementptr inbounds nuw i8, ptr %.2.i, i64 1
  %125 = icmp ult ptr %124, %38
  br i1 %125, label %.lr.ph.i.split, label %matchbracketclass.exit, !llvm.loop !62

matchbracketclass.exit:                           ; preds = %match_class.exit.i, %121, %119, %111, %100, %110, %71, %71, %83, %73, %72, %60, %57, %37
  %.022.in.i = phi i1 [ %41, %37 ], [ %not..i, %60 ], [ %not..i, %57 ], [ %41, %83 ], [ %not..i, %72 ], [ %not..i, %73 ], [ %not..i, %71 ], [ %not..i, %71 ], [ %not..i, %110 ], [ %not..i, %100 ], [ %not..i, %111 ], [ %41, %match_class.exit.i ], [ %not..i, %121 ], [ %not..i, %119 ]
  %.022.i = zext i1 %.022.in.i to i32
  br label %match_class.exit

126:                                              ; preds = %3
  %127 = zext i8 %4 to i32
  %128 = icmp eq i32 %0, %127
  %129 = zext i1 %128 to i32
  br label %match_class.exit

match_class.exit:                                 ; preds = %34, %31, %28, %16, %3, %126, %matchbracketclass.exit
  %.0 = phi i32 [ %129, %126 ], [ %.022.i, %matchbracketclass.exit ], [ 1, %3 ], [ %36, %34 ], [ %33, %31 ], [ %30, %28 ], [ %26, %16 ]
  ret i32 %.0
}